target datalayout = "e-m:e-p270:32:32-p271:32:32-p272:64:64-i64:64-i128:128-f80:128-n8:16:32:64-S128"
target triple = "x86_64-pc-linux-gnu"

%struct.repository = type { ptr, ptr, ptr, ptr, ptr, %struct.strmap, %struct.strmap, %struct.repo_path_cache, ptr, ptr, ptr, ptr, %struct.repo_settings, ptr, ptr, ptr, ptr, ptr, ptr, i32, i32, i32, ptr, ptr, i32, i32, i8 }
%struct.strmap = type { %struct.hashmap, ptr, i8 }
%struct.hashmap = type { ptr, ptr, ptr, i32, i32, i32, i32, i8 }
%struct.repo_path_cache = type { ptr, ptr, ptr, ptr, ptr, ptr, ptr }
%struct.repo_settings = type { i32, i32, i32, i32, i32, i32, i32, i32, i32, i32, i32, i32, ptr, i32, i32, i32, i32, i32, i32, i32, i64, i64, i64 }

@.str.29 = private unnamed_addr constant [11 x i8] c"SQUASH_MSG\00", align 1

; Function Attrs: nounwind uwtable
define dso_local ptr @git_path_squash_msg(ptr noundef %0) #0 {
  %2 = alloca ptr, align 8
  store ptr %0, ptr %2, align 8, !tbaa !19
  %3 = load ptr, ptr %2, align 8, !tbaa !19
  %4 = getelementptr inbounds nuw %struct.repository, ptr %3, i32 0, i32 7
  %5 = getelementptr inbounds nuw %struct.repo_path_cache, ptr %4, i32 0, i32 0
  %6 = load ptr, ptr %5, align 8, !tbaa !120
  %7 = icmp ne ptr %6, null
  br i1 %7, label %14, label %8

8:                                                ; preds = %1
  %9 = load ptr, ptr %2, align 8, !tbaa !19
  %10 = call ptr (ptr, ptr, ...) @repo_git_path(ptr noundef %9, ptr noundef @.str.29)
  %11 = load ptr, ptr %2, align 8, !tbaa !19
  %12 = getelementptr inbounds nuw %struct.repository, ptr %11, i32 0, i32 7
  %13 = getelementptr inbounds nuw %struct.repo_path_cache, ptr %12, i32 0, i32 0
  store ptr %10, ptr %13, align 8, !tbaa !120
  br label %14

14:                                               ; preds = %8, %1
  %15 = load ptr, ptr %2, align 8, !tbaa !19
  %16 = getelementptr inbounds nuw %struct.repository, ptr %15, i32 0, i32 7
  %17 = getelementptr inbounds nuw %struct.repo_path_cache, ptr %16, i32 0, i32 0
  %18 = load ptr, ptr %17, align 8, !tbaa !120
  ret ptr %18
}